target datalayout = "e-m:e-p270:32:32-p271:32:32-p272:64:64-i64:64-i128:128-f80:128-n8:16:32:64-S128"
target triple = "x86_64-pc-linux-gnu"

%struct.pmix_tma = type { ptr, ptr, ptr, ptr, ptr, ptr, ptr, ptr }
%struct.pmix_byte_object = type { ptr, i64 }
%struct.pmix_endpoint = type { ptr, ptr, %struct.pmix_byte_object }

; Function Attrs: inlinehint nounwind uwtable
define internal void @pmix_bfrops_base_tma_endpoint_construct(ptr noundef %0, ptr noundef %1) #8 {
  %3 = alloca ptr, align 8
  %4 = alloca ptr, align 8
  store ptr %0, ptr %3, align 8, !tbaa !46
  store ptr %1, ptr %4, align 8, !tbaa !66
  %5 = load ptr, ptr %3, align 8, !tbaa !46
  call void @llvm.memset.p0.i64(ptr align 8 %5, i8 0, i64 32, i1 false)
  ret void
}

; Function Attrs: inlinehint nounwind uwtable
define internal ptr @pmix_tma_malloc(ptr noundef %0, i64 noundef %1) #8 {
  %3 = alloca ptr, align 8
  %4 = alloca ptr, align 8
  %5 = alloca i64, align 8
  store ptr %0, ptr %4, align 8, !tbaa !66
  store i64 %1, ptr %5, align 8, !tbaa !58
  %6 = load ptr, ptr %4, align 8, !tbaa !66
  %7 = icmp ne ptr null, %6
  br i1 %7, label %8, label %15

8:                                                ; preds = %2
  %9 = load ptr, ptr %4, align 8, !tbaa !66
  %10 = getelementptr inbounds nuw %struct.pmix_tma, ptr %9, i32 0, i32 0
  %11 = load ptr, ptr %10, align 8, !tbaa !265
  %12 = load ptr, ptr %4, align 8, !tbaa !66
  %13 = load i64, ptr %5, align 8, !tbaa !58
  %14 = call ptr %11(ptr noundef %12, i64 noundef %13)
  store ptr %14, ptr %3, align 8
  br label %18

15:                                               ; preds = %2
  %16 = load i64, ptr %5, align 8, !tbaa !58
  %17 = call noalias ptr @malloc(i64 noundef %16) #16
  store ptr %17, ptr %3, align 8
  br label %18

18:                                               ; preds = %15, %8
  %19 = load ptr, ptr %3, align 8
  ret ptr %19
}

; Function Attrs: inlinehint nounwind uwtable
define internal ptr @pmix_tma_strdup(ptr noundef %0, ptr noundef %1) #8 {
  %3 = alloca ptr, align 8
  %4 = alloca ptr, align 8
  %5 = alloca ptr, align 8
  store ptr %0, ptr %4, align 8, !tbaa !66
  store ptr %1, ptr %5, align 8, !tbaa !14
  %6 = load ptr, ptr %4, align 8, !tbaa !66
  %7 = icmp ne ptr null, %6
  br i1 %7, label %8, label %15

8:                                                ; preds = %2
  %9 = load ptr, ptr %4, align 8, !tbaa !66
  %10 = getelementptr inbounds nuw %struct.pmix_tma, ptr %9, i32 0, i32 3
  %11 = load ptr, ptr %10, align 8, !tbaa !263
  %12 = load ptr, ptr %4, align 8, !tbaa !66
  %13 = load ptr, ptr %5, align 8, !tbaa !14
  %14 = call ptr %11(ptr noundef %12, ptr noundef %13)
  store ptr %14, ptr %3, align 8
  br label %18

15:                                               ; preds = %2
  %16 = load ptr, ptr %5, align 8, !tbaa !14
  %17 = call noalias ptr @strdup(ptr noundef %16) #15
  store ptr %17, ptr %3, align 8
  br label %18

18:                                               ; preds = %15, %8
  %19 = load ptr, ptr %3, align 8
  ret ptr %19
}

; Function Attrs: inlinehint nounwind uwtable
define internal ptr @pmix_bfrops_base_tma_endpoint_create(i64 noundef %0, ptr noundef %1) #8 {
  %3 = alloca ptr, align 8
  %4 = alloca i64, align 8
  %5 = alloca ptr, align 8
  %6 = alloca ptr, align 8
  %7 = alloca i64, align 8
  store i64 %0, ptr %4, align 8, !tbaa !58
  store ptr %1, ptr %5, align 8, !tbaa !66
  %8 = load i64, ptr %4, align 8, !tbaa !58
  %9 = icmp eq i64 0, %8
  br i1 %9, label %10, label %11

10:                                               ; preds = %2
  store ptr null, ptr %3, align 8
  br label %41

11:                                               ; preds = %2
  call void @llvm.lifetime.start.p0(i64 8, ptr %6) #15
  %12 = load ptr, ptr %5, align 8, !tbaa !66
  %13 = load i64, ptr %4, align 8, !tbaa !58
  %14 = mul i64 %13, 32
  %15 = call ptr @pmix_tma_malloc(ptr noundef %12, i64 noundef %14)
  store ptr %15, ptr %6, align 8, !tbaa !46
  %16 = load ptr, ptr %6, align 8, !tbaa !46
  %17 = icmp ne ptr null, %16
  %18 = xor i1 %17, true
  %19 = xor i1 %18, true
  %20 = zext i1 %19 to i32
  %21 = sext i32 %20 to i64
  %22 = call i64 @llvm.expect.i64(i64 %21, i64 1)
  %23 = icmp ne i64 %22, 0
  br i1 %23, label %24, label %39

24:                                               ; preds = %11
  call void @llvm.lifetime.start.p0(i64 8, ptr %7) #15
  store i64 0, ptr %7, align 8, !tbaa !58
  br label %25

25:                                               ; preds = %35, %24
  %26 = load i64, ptr %7, align 8, !tbaa !58
  %27 = load i64, ptr %4, align 8, !tbaa !58
  %28 = icmp ult i64 %26, %27
  br i1 %28, label %30, label %29

29:                                               ; preds = %25
  call void @llvm.lifetime.end.p0(i64 8, ptr %7) #15
  br label %38

30:                                               ; preds = %25
  %31 = load ptr, ptr %6, align 8, !tbaa !46
  %32 = load i64, ptr %7, align 8, !tbaa !58
  %33 = getelementptr inbounds nuw %struct.pmix_endpoint, ptr %31, i64 %32
  %34 = load ptr, ptr %5, align 8, !tbaa !66
  call void @pmix_bfrops_base_tma_endpoint_construct(ptr noundef %33, ptr noundef %34)
  br label %35

35:                                               ; preds = %30
  %36 = load i64, ptr %7, align 8, !tbaa !58
  %37 = add i64 %36, 1
  store i64 %37, ptr %7, align 8, !tbaa !58
  br label %25, !llvm.loop !345

38:                                               ; preds = %29
  br label %39

39:                                               ; preds = %38, %11
  %40 = load ptr, ptr %6, align 8, !tbaa !46
  store ptr %40, ptr %3, align 8
  call void @llvm.lifetime.end.p0(i64 8, ptr %6) #15
  br label %41

41:                                               ; preds = %39, %10
  %42 = load ptr, ptr %3, align 8
  ret ptr %42
}

; Function Attrs: inlinehint nounwind uwtable
define internal i32 @pmix_bfrops_base_tma_copy_endpoint(ptr noundef %0, ptr noundef %1, i16 noundef zeroext %2, ptr noundef %3) #8 {
  %5 = alloca i32, align 4
  %6 = alloca ptr, align 8
  %7 = alloca ptr, align 8
  %8 = alloca i16, align 2
  %9 = alloca ptr, align 8
  %10 = alloca ptr, align 8
  %11 = alloca i32, align 4
  store ptr %0, ptr %6, align 8, !tbaa !315
  store ptr %1, ptr %7, align 8, !tbaa !46
  store i16 %2, ptr %8, align 2, !tbaa !9
  store ptr %3, ptr %9, align 8, !tbaa !66
  call void @llvm.lifetime.start.p0(i64 8, ptr %10) #15
  %12 = load ptr, ptr %9, align 8, !tbaa !66
  %13 = call ptr @pmix_bfrops_base_tma_endpoint_create(i64 noundef 1, ptr noundef %12)
  store ptr %13, ptr %10, align 8, !tbaa !46
  %14 = load ptr, ptr %10, align 8, !tbaa !46
  %15 = icmp eq ptr null, %14
  %16 = xor i1 %15, true
  %17 = xor i1 %16, true
  %18 = zext i1 %17 to i32
  %19 = sext i32 %18 to i64
  %20 = call i64 @llvm.expect.i64(i64 %19, i64 0)
  %21 = icmp ne i64 %20, 0
  br i1 %21, label %22, label %23

22:                                               ; preds = %4
  store i32 -32, ptr %5, align 4
  store i32 1, ptr %11, align 4
  br label %87

23:                                               ; preds = %4
  %24 = load ptr, ptr %7, align 8, !tbaa !46
  %25 = getelementptr inbounds nuw %struct.pmix_endpoint, ptr %24, i32 0, i32 0
  %26 = load ptr, ptr %25, align 8, !tbaa !163
  %27 = icmp ne ptr null, %26
  br i1 %27, label %28, label %36

28:                                               ; preds = %23
  %29 = load ptr, ptr %9, align 8, !tbaa !66
  %30 = load ptr, ptr %7, align 8, !tbaa !46
  %31 = getelementptr inbounds nuw %struct.pmix_endpoint, ptr %30, i32 0, i32 0
  %32 = load ptr, ptr %31, align 8, !tbaa !163
  %33 = call ptr @pmix_tma_strdup(ptr noundef %29, ptr noundef %32)
  %34 = load ptr, ptr %10, align 8, !tbaa !46
  %35 = getelementptr inbounds nuw %struct.pmix_endpoint, ptr %34, i32 0, i32 0
  store ptr %33, ptr %35, align 8, !tbaa !163
  br label %36

36:                                               ; preds = %28, %23
  %37 = load ptr, ptr %7, align 8, !tbaa !46
  %38 = getelementptr inbounds nuw %struct.pmix_endpoint, ptr %37, i32 0, i32 1
  %39 = load ptr, ptr %38, align 8, !tbaa !165
  %40 = icmp ne ptr null, %39
  br i1 %40, label %41, label %49

41:                                               ; preds = %36
  %42 = load ptr, ptr %9, align 8, !tbaa !66
  %43 = load ptr, ptr %7, align 8, !tbaa !46
  %44 = getelementptr inbounds nuw %struct.pmix_endpoint, ptr %43, i32 0, i32 1
  %45 = load ptr, ptr %44, align 8, !tbaa !165
  %46 = call ptr @pmix_tma_strdup(ptr noundef %42, ptr noundef %45)
  %47 = load ptr, ptr %10, align 8, !tbaa !46
  %48 = getelementptr inbounds nuw %struct.pmix_endpoint, ptr %47, i32 0, i32 1
  store ptr %46, ptr %48, align 8, !tbaa !165
  br label %49

49:                                               ; preds = %41, %36
  %50 = load ptr, ptr %7, align 8, !tbaa !46
  %51 = getelementptr inbounds nuw %struct.pmix_endpoint, ptr %50, i32 0, i32 2
  %52 = getelementptr inbounds nuw %struct.pmix_byte_object, ptr %51, i32 0, i32 0
  %53 = load ptr, ptr %52, align 8, !tbaa !257
  %54 = icmp ne ptr null, %53
  br i1 %54, label %55, label %84

55:                                               ; preds = %49
  %56 = load ptr, ptr %9, align 8, !tbaa !66
  %57 = load ptr, ptr %7, align 8, !tbaa !46
  %58 = getelementptr inbounds nuw %struct.pmix_endpoint, ptr %57, i32 0, i32 2
  %59 = getelementptr inbounds nuw %struct.pmix_byte_object, ptr %58, i32 0, i32 1
  %60 = load i64, ptr %59, align 8, !tbaa !166
  %61 = call ptr @pmix_tma_malloc(ptr noundef %56, i64 noundef %60)
  %62 = load ptr, ptr %10, align 8, !tbaa !46
  %63 = getelementptr inbounds nuw %struct.pmix_endpoint, ptr %62, i32 0, i32 2
  %64 = getelementptr inbounds nuw %struct.pmix_byte_object, ptr %63, i32 0, i32 0
  store ptr %61, ptr %64, align 8, !tbaa !257
  %65 = load ptr, ptr %10, align 8, !tbaa !46
  %66 = getelementptr inbounds nuw %struct.pmix_endpoint, ptr %65, i32 0, i32 2
  %67 = getelementptr inbounds nuw %struct.pmix_byte_object, ptr %66, i32 0, i32 0
  %68 = load ptr, ptr %67, align 8, !tbaa !257
  %69 = load ptr, ptr %7, align 8, !tbaa !46
  %70 = getelementptr inbounds nuw %struct.pmix_endpoint, ptr %69, i32 0, i32 2
  %71 = getelementptr inbounds nuw %struct.pmix_byte_object, ptr %70, i32 0, i32 0
  %72 = load ptr, ptr %71, align 8, !tbaa !257
  %73 = load ptr, ptr %7, align 8, !tbaa !46
  %74 = getelementptr inbounds nuw %struct.pmix_endpoint, ptr %73, i32 0, i32 2
  %75 = getelementptr inbounds nuw %struct.pmix_byte_object, ptr %74, i32 0, i32 1
  %76 = load i64, ptr %75, align 8, !tbaa !166
  call void @llvm.memcpy.p0.p0.i64(ptr align 1 %68, ptr align 1 %72, i64 %76, i1 false)
  %77 = load ptr, ptr %7, align 8, !tbaa !46
  %78 = getelementptr inbounds nuw %struct.pmix_endpoint, ptr %77, i32 0, i32 2
  %79 = getelementptr inbounds nuw %struct.pmix_byte_object, ptr %78, i32 0, i32 1
  %80 = load i64, ptr %79, align 8, !tbaa !166
  %81 = load ptr, ptr %10, align 8, !tbaa !46
  %82 = getelementptr inbounds nuw %struct.pmix_endpoint, ptr %81, i32 0, i32 2
  %83 = getelementptr inbounds nuw %struct.pmix_byte_object, ptr %82, i32 0, i32 1
  store i64 %80, ptr %83, align 8, !tbaa !166
  br label %84

84:                                               ; preds = %55, %49
  %85 = load ptr, ptr %10, align 8, !tbaa !46
  %86 = load ptr, ptr %6, align 8, !tbaa !315
  store ptr %85, ptr %86, align 8, !tbaa !46
  store i32 0, ptr %5, align 4
  store i32 1, ptr %11, align 4
  br label %87

87:                                               ; preds = %84, %22
  call void @llvm.lifetime.end.p0(i64 8, ptr %10) #15
  %88 = load i32, ptr %5, align 4
  ret i32 %88
}