; Function Attrs: inlinehint mustprogress nofree nounwind willreturn uwtable
define internal fastcc range(i32 -32, 1) i32 @pmix_bfrops_base_tma_copy_endpoint(ptr noundef writeonly captures(none) %0, ptr noundef readonly captures(none) %1) unnamed_addr #15 {
  %calloc.i = tail call dereferenceable_or_null(32) ptr @calloc(i64 1, i64 32)
  %3 = icmp eq ptr %calloc.i, null
  br i1 %3, label %24, label %4, !prof !116

4:                                                ; preds = %2
  %5 = load ptr, ptr %1, align 8, !tbaa !92
  %.not = icmp eq ptr %5, null
  br i1 %.not, label %8, label %6

6:                                                ; preds = %4
  %7 = tail call noalias ptr @strdup(ptr noundef nonnull readonly %5) #24
  store ptr %7, ptr %calloc.i, align 8, !tbaa !92
  br label %8

8:                                                ; preds = %6, %4
  %9 = getelementptr inbounds nuw i8, ptr %1, i64 8
  %10 = load ptr, ptr %9, align 8, !tbaa !94
  %.not24 = icmp eq ptr %10, null
  br i1 %.not24, label %14, label %11

11:                                               ; preds = %8
  %12 = tail call noalias ptr @strdup(ptr noundef nonnull readonly %10) #24
  %13 = getelementptr inbounds nuw i8, ptr %calloc.i, i64 8
  store ptr %12, ptr %13, align 8, !tbaa !94
  br label %14

14:                                               ; preds = %11, %8
  %15 = getelementptr inbounds nuw i8, ptr %1, i64 16
  %16 = load ptr, ptr %15, align 8, !tbaa !95
  %.not25 = icmp eq ptr %16, null
  br i1 %.not25, label %23, label %17

17:                                               ; preds = %14
  %18 = getelementptr inbounds nuw i8, ptr %1, i64 24
  %19 = load i64, ptr %18, align 8, !tbaa !160
  %20 = tail call noalias noundef ptr @malloc(i64 noundef %19) #25
  %21 = getelementptr inbounds nuw i8, ptr %calloc.i, i64 16
  store ptr %20, ptr %21, align 8, !tbaa !95
  tail call void @llvm.memcpy.p0.p0.i64(ptr align 1 %20, ptr nonnull align 1 %16, i64 %19, i1 false)
  %22 = getelementptr inbounds nuw i8, ptr %calloc.i, i64 24
  store i64 %19, ptr %22, align 8, !tbaa !160
  br label %23

23:                                               ; preds = %17, %14
  store ptr %calloc.i, ptr %0, align 8, !tbaa !291
  br label %24

24:                                               ; preds = %2, %23
  %.0 = phi i32 [ 0, %23 ], [ -32, %2 ]
  ret i32 %.0
}